; ModuleID = '9/1606.c'
source_filename = "9/1606.c"
target datalayout = "e-m:e-p270:32:32-p271:32:32-p272:64:64-i64:64-f80:128-n8:16:32:64-S128"
target triple = "x86_64-pc-linux-gnu"

@.str = private unnamed_addr constant [3 x i8] c"%d\00", align 1
@.str.1 = private unnamed_addr constant [3 x i8] c"%s\00", align 1
@.str.2 = private unnamed_addr constant [4 x i8] c"%s\0A\00", align 1

; Function Attrs: noinline nounwind uwtable
define dso_local i32 @main() #0 {
  %1 = alloca i32, align 4
  %2 = alloca [200 x [10 x i8]], align 16
  %3 = alloca [200 x [10 x i8]], align 16
  %4 = alloca [10 x i8], align 1
  %5 = alloca [200 x i32], align 16
  %6 = alloca [200 x i32], align 16
  %7 = alloca i32, align 4
  %8 = alloca i32, align 4
  %9 = alloca i32, align 4
  %10 = alloca i32, align 4
  %11 = alloca i32, align 4
  %12 = alloca i32, align 4
  %13 = alloca i32, align 4
  store i32 0, i32* %1, align 4
  %14 = bitcast [200 x [10 x i8]]* %3 to i8*
  call void @llvm.memset.p0i8.i64(i8* align 16 %14, i8 0, i64 2000, i1 false)
  %15 = call i32 (i8*, ...) @__isoc99_scanf(i8* getelementptr inbounds ([3 x i8], [3 x i8]* @.str, i64 0, i64 0), i32* %7)
  store i32 0, i32* %8, align 4
  br label %16

16:                                               ; preds = %30, %0
  %17 = load i32, i32* %8, align 4
  %18 = load i32, i32* %7, align 4
  %19 = icmp slt i32 %17, %18
  br i1 %19, label %20, label %33

20:                                               ; preds = %16
  %21 = load i32, i32* %8, align 4
  %22 = sext i32 %21 to i64
  %23 = getelementptr inbounds [200 x [10 x i8]], [200 x [10 x i8]]* %2, i64 0, i64 %22
  %24 = getelementptr inbounds [10 x i8], [10 x i8]* %23, i64 0, i64 0
  %25 = call i32 (i8*, ...) @__isoc99_scanf(i8* getelementptr inbounds ([3 x i8], [3 x i8]* @.str.1, i64 0, i64 0), i8* %24)
  %26 = load i32, i32* %8, align 4
  %27 = sext i32 %26 to i64
  %28 = getelementptr inbounds [200 x i32], [200 x i32]* %5, i64 0, i64 %27
  %29 = call i32 (i8*, ...) @__isoc99_scanf(i8* getelementptr inbounds ([3 x i8], [3 x i8]* @.str, i64 0, i64 0), i32* %28)
  br label %30

30:                                               ; preds = %20
  %31 = load i32, i32* %8, align 4
  %32 = add nsw i32 %31, 1
  store i32 %32, i32* %8, align 4
  br label %16

33:                                               ; preds = %16
  store i32 0, i32* %9, align 4
  store i32 0, i32* %10, align 4
  store i32 0, i32* %12, align 4
  store i32 0, i32* %11, align 4
  store i32 0, i32* %8, align 4
  br label %34

34:                                               ; preds = %66, %33
  %35 = load i32, i32* %8, align 4
  %36 = load i32, i32* %7, align 4
  %37 = icmp slt i32 %35, %36
  br i1 %37, label %38, label %69

38:                                               ; preds = %34
  %39 = load i32, i32* %8, align 4
  %40 = sext i32 %39 to i64
  %41 = getelementptr inbounds [200 x i32], [200 x i32]* %5, i64 0, i64 %40
  %42 = load i32, i32* %41, align 4
  %43 = icmp sge i32 %42, 60
  br i1 %43, label %44, label %65

44:                                               ; preds = %38
  %45 = load i32, i32* %8, align 4
  %46 = sext i32 %45 to i64
  %47 = getelementptr inbounds [200 x i32], [200 x i32]* %5, i64 0, i64 %46
  %48 = load i32, i32* %47, align 4
  %49 = load i32, i32* %9, align 4
  %50 = sext i32 %49 to i64
  %51 = getelementptr inbounds [200 x i32], [200 x i32]* %6, i64 0, i64 %50
  store i32 %48, i32* %51, align 4
  %52 = load i32, i32* %9, align 4
  %53 = sext i32 %52 to i64
  %54 = getelementptr inbounds [200 x [10 x i8]], [200 x [10 x i8]]* %3, i64 0, i64 %53
  %55 = getelementptr inbounds [10 x i8], [10 x i8]* %54, i64 0, i64 0
  %56 = load i32, i32* %8, align 4
  %57 = sext i32 %56 to i64
  %58 = getelementptr inbounds [200 x [10 x i8]], [200 x [10 x i8]]* %2, i64 0, i64 %57
  %59 = getelementptr inbounds [10 x i8], [10 x i8]* %58, i64 0, i64 0
  %60 = call i8* @strcpy(i8* %55, i8* %59) #4
  %61 = load i32, i32* %9, align 4
  %62 = add nsw i32 %61, 1
  store i32 %62, i32* %9, align 4
  %63 = load i32, i32* %12, align 4
  %64 = add nsw i32 %63, 1
  store i32 %64, i32* %12, align 4
  br label %65

65:                                               ; preds = %44, %38
  br label %66

66:                                               ; preds = %65
  %67 = load i32, i32* %8, align 4
  %68 = add nsw i32 %67, 1
  store i32 %68, i32* %8, align 4
  br label %34

69:                                               ; preds = %34
  %70 = load i32, i32* %12, align 4
  %71 = sub nsw i32 %70, 1
  store i32 %71, i32* %9, align 4
  br label %72

72:                                               ; preds = %137, %69
  %73 = load i32, i32* %9, align 4
  %74 = icmp sgt i32 %73, 0
  br i1 %74, label %75, label %140

75:                                               ; preds = %72
  store i32 0, i32* %8, align 4
  br label %76

76:                                               ; preds = %133, %75
  %77 = load i32, i32* %8, align 4
  %78 = load i32, i32* %9, align 4
  %79 = icmp slt i32 %77, %78
  br i1 %79, label %80, label %136

80:                                               ; preds = %76
  %81 = load i32, i32* %8, align 4
  %82 = sext i32 %81 to i64
  %83 = getelementptr inbounds [200 x i32], [200 x i32]* %6, i64 0, i64 %82
  %84 = load i32, i32* %83, align 4
  %85 = load i32, i32* %8, align 4
  %86 = add nsw i32 %85, 1
  %87 = sext i32 %86 to i64
  %88 = getelementptr inbounds [200 x i32], [200 x i32]* %6, i64 0, i64 %87
  %89 = load i32, i32* %88, align 4
  %90 = icmp slt i32 %84, %89
  br i1 %90, label %91, label %132

91:                                               ; preds = %80
  %92 = load i32, i32* %8, align 4
  %93 = add nsw i32 %92, 1
  %94 = sext i32 %93 to i64
  %95 = getelementptr inbounds [200 x i32], [200 x i32]* %6, i64 0, i64 %94
  %96 = load i32, i32* %95, align 4
  store i32 %96, i32* %13, align 4
  %97 = getelementptr inbounds [10 x i8], [10 x i8]* %4, i64 0, i64 0
  %98 = load i32, i32* %8, align 4
  %99 = add nsw i32 %98, 1
  %100 = sext i32 %99 to i64
  %101 = getelementptr inbounds [200 x [10 x i8]], [200 x [10 x i8]]* %3, i64 0, i64 %100
  %102 = getelementptr inbounds [10 x i8], [10 x i8]* %101, i64 0, i64 0
  %103 = call i8* @strcpy(i8* %97, i8* %102) #4
  %104 = load i32, i32* %8, align 4
  %105 = sext i32 %104 to i64
  %106 = getelementptr inbounds [200 x i32], [200 x i32]* %6, i64 0, i64 %105
  %107 = load i32, i32* %106, align 4
  %108 = load i32, i32* %8, align 4
  %109 = add nsw i32 %108, 1
  %110 = sext i32 %109 to i64
  %111 = getelementptr inbounds [200 x i32], [200 x i32]* %6, i64 0, i64 %110
  store i32 %107, i32* %111, align 4
  %112 = load i32, i32* %8, align 4
  %113 = add nsw i32 %112, 1
  %114 = sext i32 %113 to i64
  %115 = getelementptr inbounds [200 x [10 x i8]], [200 x [10 x i8]]* %3, i64 0, i64 %114
  %116 = getelementptr inbounds [10 x i8], [10 x i8]* %115, i64 0, i64 0
  %117 = load i32, i32* %8, align 4
  %118 = sext i32 %117 to i64
  %119 = getelementptr inbounds [200 x [10 x i8]], [200 x [10 x i8]]* %3, i64 0, i64 %118
  %120 = getelementptr inbounds [10 x i8], [10 x i8]* %119, i64 0, i64 0
  %121 = call i8* @strcpy(i8* %116, i8* %120) #4
  %122 = load i32, i32* %13, align 4
  %123 = load i32, i32* %8, align 4
  %124 = sext i32 %123 to i64
  %125 = getelementptr inbounds [200 x i32], [200 x i32]* %6, i64 0, i64 %124
  store i32 %122, i32* %125, align 4
  %126 = load i32, i32* %8, align 4
  %127 = sext i32 %126 to i64
  %128 = getelementptr inbounds [200 x [10 x i8]], [200 x [10 x i8]]* %3, i64 0, i64 %127
  %129 = getelementptr inbounds [10 x i8], [10 x i8]* %128, i64 0, i64 0
  %130 = getelementptr inbounds [10 x i8], [10 x i8]* %4, i64 0, i64 0
  %131 = call i8* @strcpy(i8* %129, i8* %130) #4
  br label %132

132:                                              ; preds = %91, %80
  br label %133

133:                                              ; preds = %132
  %134 = load i32, i32* %8, align 4
  %135 = add nsw i32 %134, 1
  store i32 %135, i32* %8, align 4
  br label %76

136:                                              ; preds = %76
  br label %137

137:                                              ; preds = %136
  %138 = load i32, i32* %9, align 4
  %139 = add nsw i32 %138, -1
  store i32 %139, i32* %9, align 4
  br label %72

140:                                              ; preds = %72
  store i32 0, i32* %8, align 4
  br label %141

141:                                              ; preds = %151, %140
  %142 = load i32, i32* %8, align 4
  %143 = load i32, i32* %12, align 4
  %144 = icmp slt i32 %142, %143
  br i1 %144, label %145, label %154

145:                                              ; preds = %141
  %146 = load i32, i32* %8, align 4
  %147 = sext i32 %146 to i64
  %148 = getelementptr inbounds [200 x [10 x i8]], [200 x [10 x i8]]* %3, i64 0, i64 %147
  %149 = getelementptr inbounds [10 x i8], [10 x i8]* %148, i64 0, i64 0
  %150 = call i32 (i8*, ...) @printf(i8* getelementptr inbounds ([4 x i8], [4 x i8]* @.str.2, i64 0, i64 0), i8* %149)
  br label %151

151:                                              ; preds = %145
  %152 = load i32, i32* %8, align 4
  %153 = add nsw i32 %152, 1
  store i32 %153, i32* %8, align 4
  br label %141

154:                                              ; preds = %141
  store i32 0, i32* %8, align 4
  br label %155

155:                                              ; preds = %172, %154
  %156 = load i32, i32* %8, align 4
  %157 = load i32, i32* %7, align 4
  %158 = icmp slt i32 %156, %157
  br i1 %158, label %159, label %175

159:                                              ; preds = %155
  %160 = load i32, i32* %8, align 4
  %161 = sext i32 %160 to i64
  %162 = getelementptr inbounds [200 x i32], [200 x i32]* %5, i64 0, i64 %161
  %163 = load i32, i32* %162, align 4
  %164 = icmp slt i32 %163, 60
  br i1 %164, label %165, label %171

165:                                              ; preds = %159
  %166 = load i32, i32* %8, align 4
  %167 = sext i32 %166 to i64
  %168 = getelementptr inbounds [200 x [10 x i8]], [200 x [10 x i8]]* %2, i64 0, i64 %167
  %169 = getelementptr inbounds [10 x i8], [10 x i8]* %168, i64 0, i64 0
  %170 = call i32 (i8*, ...) @printf(i8* getelementptr inbounds ([4 x i8], [4 x i8]* @.str.2, i64 0, i64 0), i8* %169)
  br label %171

171:                                              ; preds = %165, %159
  br label %172

172:                                              ; preds = %171
  %173 = load i32, i32* %8, align 4
  %174 = add nsw i32 %173, 1
  store i32 %174, i32* %8, align 4
  br label %155

175:                                              ; preds = %155
  ret i32 0
}

; Function Attrs: argmemonly nounwind willreturn
declare void @llvm.memset.p0i8.i64(i8* nocapture writeonly, i8, i64, i1 immarg) #1

declare dso_local i32 @__isoc99_scanf(i8*, ...) #2

; Function Attrs: nounwind
declare dso_local i8* @strcpy(i8*, i8*) #3

declare dso_local i32 @printf(i8*, ...) #2


!llvm.module.flags = !{!0}
!llvm.ident = !{!1}

!0 = !{i32 1, !"wchar_size", i32 4}
!1 = !{!"clang version 10.0.0-4ubuntu1 "}
